target datalayout = "e-m:e-p270:32:32-p271:32:32-p272:64:64-i64:64-i128:128-f80:128-n8:16:32:64-S128"
target triple = "x86_64-pc-linux-gnu"

@ff_ac3_bap_bits = constant [16 x i16] [i16 0, i16 0, i16 0, i16 3, i16 0, i16 4, i16 5, i16 6, i16 7, i16 8, i16 9, i16 10, i16 11, i16 12, i16 14, i16 16], align 16

; Function Attrs: nounwind uwtable
define internal i32 @ac3_compute_mantissa_size_c(ptr noundef %0) #0 {
  %2 = alloca ptr, align 8
  %3 = alloca i32, align 4
  %4 = alloca i32, align 4
  %5 = alloca i32, align 4
  store ptr %0, ptr %2, align 8, !tbaa !20
  call void @llvm.lifetime.start.p0(i64 4, ptr %3) #6
  call void @llvm.lifetime.start.p0(i64 4, ptr %4) #6
  call void @llvm.lifetime.start.p0(i64 4, ptr %5) #6
  store i32 0, ptr %5, align 4, !tbaa !14
  store i32 0, ptr %3, align 4, !tbaa !14
  br label %6

6:                                                ; preds = %76, %1
  %7 = load i32, ptr %3, align 4, !tbaa !14
  %8 = icmp slt i32 %7, 6
  br i1 %8, label %9, label %79

9:                                                ; preds = %6
  %10 = load ptr, ptr %2, align 8, !tbaa !20
  %11 = load i32, ptr %3, align 4, !tbaa !14
  %12 = sext i32 %11 to i64
  %13 = getelementptr inbounds [16 x i16], ptr %10, i64 %12
  %14 = getelementptr inbounds [16 x i16], ptr %13, i64 0, i64 1
  %15 = load i16, ptr %14, align 2, !tbaa !22
  %16 = zext i16 %15 to i32
  %17 = sdiv i32 %16, 3
  %18 = mul nsw i32 %17, 5
  %19 = load i32, ptr %5, align 4, !tbaa !14
  %20 = add nsw i32 %19, %18
  store i32 %20, ptr %5, align 4, !tbaa !14
  %21 = load ptr, ptr %2, align 8, !tbaa !20
  %22 = load i32, ptr %3, align 4, !tbaa !14
  %23 = sext i32 %22 to i64
  %24 = getelementptr inbounds [16 x i16], ptr %21, i64 %23
  %25 = getelementptr inbounds [16 x i16], ptr %24, i64 0, i64 2
  %26 = load i16, ptr %25, align 2, !tbaa !22
  %27 = zext i16 %26 to i32
  %28 = sdiv i32 %27, 3
  %29 = load ptr, ptr %2, align 8, !tbaa !20
  %30 = load i32, ptr %3, align 4, !tbaa !14
  %31 = sext i32 %30 to i64
  %32 = getelementptr inbounds [16 x i16], ptr %29, i64 %31
  %33 = getelementptr inbounds [16 x i16], ptr %32, i64 0, i64 4
  %34 = load i16, ptr %33, align 2, !tbaa !22
  %35 = zext i16 %34 to i32
  %36 = ashr i32 %35, 1
  %37 = add nsw i32 %28, %36
  %38 = mul nsw i32 %37, 7
  %39 = load i32, ptr %5, align 4, !tbaa !14
  %40 = add nsw i32 %39, %38
  store i32 %40, ptr %5, align 4, !tbaa !14
  %41 = load ptr, ptr %2, align 8, !tbaa !20
  %42 = load i32, ptr %3, align 4, !tbaa !14
  %43 = sext i32 %42 to i64
  %44 = getelementptr inbounds [16 x i16], ptr %41, i64 %43
  %45 = getelementptr inbounds [16 x i16], ptr %44, i64 0, i64 3
  %46 = load i16, ptr %45, align 2, !tbaa !22
  %47 = zext i16 %46 to i32
  %48 = mul nsw i32 %47, 3
  %49 = load i32, ptr %5, align 4, !tbaa !14
  %50 = add nsw i32 %49, %48
  store i32 %50, ptr %5, align 4, !tbaa !14
  store i32 5, ptr %4, align 4, !tbaa !14
  br label %51

51:                                               ; preds = %72, %9
  %52 = load i32, ptr %4, align 4, !tbaa !14
  %53 = icmp slt i32 %52, 16
  br i1 %53, label %54, label %75

54:                                               ; preds = %51
  %55 = load ptr, ptr %2, align 8, !tbaa !20
  %56 = load i32, ptr %3, align 4, !tbaa !14
  %57 = sext i32 %56 to i64
  %58 = getelementptr inbounds [16 x i16], ptr %55, i64 %57
  %59 = load i32, ptr %4, align 4, !tbaa !14
  %60 = sext i32 %59 to i64
  %61 = getelementptr inbounds [16 x i16], ptr %58, i64 0, i64 %60
  %62 = load i16, ptr %61, align 2, !tbaa !22
  %63 = zext i16 %62 to i32
  %64 = load i32, ptr %4, align 4, !tbaa !14
  %65 = sext i32 %64 to i64
  %66 = getelementptr inbounds [16 x i16], ptr @ff_ac3_bap_bits, i64 0, i64 %65
  %67 = load i16, ptr %66, align 2, !tbaa !22
  %68 = zext i16 %67 to i32
  %69 = mul nsw i32 %63, %68
  %70 = load i32, ptr %5, align 4, !tbaa !14
  %71 = add nsw i32 %70, %69
  store i32 %71, ptr %5, align 4, !tbaa !14
  br label %72

72:                                               ; preds = %54
  %73 = load i32, ptr %4, align 4, !tbaa !14
  %74 = add nsw i32 %73, 1
  store i32 %74, ptr %4, align 4, !tbaa !14
  br label %51, !llvm.loop !65

75:                                               ; preds = %51
  br label %76

76:                                               ; preds = %75
  %77 = load i32, ptr %3, align 4, !tbaa !14
  %78 = add nsw i32 %77, 1
  store i32 %78, ptr %3, align 4, !tbaa !14
  br label %6, !llvm.loop !66

79:                                               ; preds = %6
  %80 = load i32, ptr %5, align 4, !tbaa !14
  call void @llvm.lifetime.end.p0(i64 4, ptr %5) #6
  call void @llvm.lifetime.end.p0(i64 4, ptr %4) #6
  call void @llvm.lifetime.end.p0(i64 4, ptr %3) #6
  ret i32 %80
}