; Function Attrs: nofree norecurse nosync nounwind memory(argmem: read) uwtable
define internal i32 @ac3_compute_mantissa_size_c(ptr noundef readonly captures(none) %0) #4 {
  br label %2

2:                                                ; preds = %1, %33
  %indvars.iv27 = phi i64 [ 0, %1 ], [ %indvars.iv.next28, %33 ]
  %.025 = phi i32 [ 0, %1 ], [ %32, %33 ]
  %3 = getelementptr inbounds nuw [16 x i16], ptr %0, i64 %indvars.iv27
  %4 = getelementptr inbounds nuw i8, ptr %3, i64 2
  %5 = load i16, ptr %4, align 2, !tbaa !14
  %6 = udiv i16 %5, 3
  %7 = zext nneg i16 %6 to i32
  %8 = mul nuw nsw i32 %7, 5
  %9 = add nsw i32 %8, %.025
  %10 = getelementptr inbounds nuw i8, ptr %3, i64 4
  %11 = load i16, ptr %10, align 2, !tbaa !14
  %12 = udiv i16 %11, 3
  %13 = getelementptr inbounds nuw i8, ptr %3, i64 8
  %14 = load i16, ptr %13, align 2, !tbaa !14
  %15 = lshr i16 %14, 1
  %narrow = add nuw i16 %15, %12
  %16 = zext i16 %narrow to i32
  %17 = mul nuw nsw i32 %16, 7
  %18 = getelementptr inbounds nuw i8, ptr %3, i64 6
  %19 = load i16, ptr %18, align 2, !tbaa !14
  %20 = zext i16 %19 to i32
  %21 = mul nuw nsw i32 %20, 3
  %22 = add i32 %9, %21
  %23 = add i32 %22, %17
  br label %24

24:                                               ; preds = %2, %24
  %indvars.iv = phi i64 [ 5, %2 ], [ %indvars.iv.next, %24 ]
  %.123 = phi i32 [ %23, %2 ], [ %32, %24 ]
  %25 = getelementptr inbounds nuw [16 x i16], ptr %0, i64 %indvars.iv27, i64 %indvars.iv
  %26 = load i16, ptr %25, align 2, !tbaa !14
  %27 = zext i16 %26 to i32
  %28 = getelementptr inbounds nuw [16 x i16], ptr @ff_ac3_bap_bits, i64 0, i64 %indvars.iv
  %29 = load i16, ptr %28, align 2, !tbaa !14
  %30 = zext i16 %29 to i32
  %31 = mul nuw nsw i32 %30, %27
  %32 = add nsw i32 %31, %.123
  %indvars.iv.next = add nuw nsw i64 %indvars.iv, 1
  %exitcond.not = icmp eq i64 %indvars.iv.next, 16
  br i1 %exitcond.not, label %33, label %24, !llvm.loop !52

33:                                               ; preds = %24
  %indvars.iv.next28 = add nuw nsw i64 %indvars.iv27, 1
  %exitcond30.not = icmp eq i64 %indvars.iv.next28, 6
  br i1 %exitcond30.not, label %34, label %2, !llvm.loop !53

34:                                               ; preds = %33
  ret i32 %32
}